target datalayout = "e-m:e-p270:32:32-p271:32:32-p272:64:64-i64:64-i128:128-f80:128-n8:16:32:64-S128"
target triple = "x86_64-pc-linux-gnu"

%struct.quicklistNode = type { ptr, ptr, ptr, i64, i32 }
%struct.quicklistIter = type { ptr, ptr, ptr, i64, i32 }

; Function Attrs: nounwind uwtable
define dso_local void @quicklistReleaseIterator(ptr noundef %0) #0 {
  %2 = alloca ptr, align 8
  store ptr %0, ptr %2, align 8, !tbaa !42
  %3 = load ptr, ptr %2, align 8, !tbaa !42
  %4 = icmp ne ptr %3, null
  br i1 %4, label %6, label %5

5:                                                ; preds = %1
  br label %54

6:                                                ; preds = %1
  %7 = load ptr, ptr %2, align 8, !tbaa !42
  %8 = getelementptr inbounds nuw %struct.quicklistIter, ptr %7, i32 0, i32 1
  %9 = load ptr, ptr %8, align 8, !tbaa !53
  %10 = icmp ne ptr %9, null
  br i1 %10, label %11, label %52

11:                                               ; preds = %6
  br label %12

12:                                               ; preds = %11
  %13 = load ptr, ptr %2, align 8, !tbaa !42
  %14 = getelementptr inbounds nuw %struct.quicklistIter, ptr %13, i32 0, i32 1
  %15 = load ptr, ptr %14, align 8, !tbaa !53
  %16 = getelementptr inbounds nuw %struct.quicklistNode, ptr %15, i32 0, i32 4
  %17 = load i32, ptr %16, align 8
  %18 = lshr i32 %17, 20
  %19 = and i32 %18, 1
  %20 = icmp ne i32 %19, 0
  br i1 %20, label %21, label %43

21:                                               ; preds = %12
  br label %22

22:                                               ; preds = %21
  %23 = load ptr, ptr %2, align 8, !tbaa !42
  %24 = getelementptr inbounds nuw %struct.quicklistIter, ptr %23, i32 0, i32 1
  %25 = load ptr, ptr %24, align 8, !tbaa !53
  %26 = icmp ne ptr %25, null
  br i1 %26, label %27, label %41

27:                                               ; preds = %22
  %28 = load ptr, ptr %2, align 8, !tbaa !42
  %29 = getelementptr inbounds nuw %struct.quicklistIter, ptr %28, i32 0, i32 1
  %30 = load ptr, ptr %29, align 8, !tbaa !53
  %31 = getelementptr inbounds nuw %struct.quicklistNode, ptr %30, i32 0, i32 4
  %32 = load i32, ptr %31, align 8
  %33 = lshr i32 %32, 16
  %34 = and i32 %33, 3
  %35 = icmp eq i32 %34, 1
  br i1 %35, label %36, label %41

36:                                               ; preds = %27
  %37 = load ptr, ptr %2, align 8, !tbaa !42
  %38 = getelementptr inbounds nuw %struct.quicklistIter, ptr %37, i32 0, i32 1
  %39 = load ptr, ptr %38, align 8, !tbaa !53
  %40 = call i32 @__quicklistCompressNode(ptr noundef %39)
  br label %41

41:                                               ; preds = %36, %27, %22
  br label %42

42:                                               ; preds = %41
  br label %50

43:                                               ; preds = %12
  %44 = load ptr, ptr %2, align 8, !tbaa !42
  %45 = getelementptr inbounds nuw %struct.quicklistIter, ptr %44, i32 0, i32 0
  %46 = load ptr, ptr %45, align 8, !tbaa !55
  %47 = load ptr, ptr %2, align 8, !tbaa !42
  %48 = getelementptr inbounds nuw %struct.quicklistIter, ptr %47, i32 0, i32 1
  %49 = load ptr, ptr %48, align 8, !tbaa !53
  call void @__quicklistCompress(ptr noundef %46, ptr noundef %49)
  br label %50

50:                                               ; preds = %43, %42
  br label %51

51:                                               ; preds = %50
  br label %52

52:                                               ; preds = %51, %6
  %53 = load ptr, ptr %2, align 8, !tbaa !42
  call void @zfree(ptr noundef %53)
  br label %54

54:                                               ; preds = %52, %5
  ret void
}