; Function Attrs: nounwind uwtable
define dso_local void @quicklistReleaseIterator(ptr noundef %0) local_unnamed_addr #1 {
  %.not = icmp eq ptr %0, null
  br i1 %.not, label %17, label %2

2:                                                ; preds = %1
  %3 = getelementptr inbounds nuw i8, ptr %0, i64 8
  %4 = load ptr, ptr %3, align 8, !tbaa !41
  %.not10 = icmp eq ptr %4, null
  br i1 %.not10, label %16, label %5

5:                                                ; preds = %2
  %6 = getelementptr inbounds nuw i8, ptr %4, i64 32
  %7 = load i32, ptr %6, align 8
  %8 = and i32 %7, 1048576
  %.not11 = icmp eq i32 %8, 0
  br i1 %.not11, label %14, label %9

9:                                                ; preds = %5
  %10 = and i32 %7, 196608
  %11 = icmp eq i32 %10, 65536
  br i1 %11, label %12, label %16

12:                                               ; preds = %9
  %13 = tail call i32 @__quicklistCompressNode(ptr noundef nonnull %4)
  br label %16

14:                                               ; preds = %5
  %15 = load ptr, ptr %0, align 8, !tbaa !43
  tail call void @__quicklistCompress(ptr noundef %15, ptr noundef nonnull %4)
  br label %16

16:                                               ; preds = %12, %9, %14, %2
  tail call void @zfree(ptr noundef nonnull %0) #23
  br label %17

17:                                               ; preds = %1, %16
  ret void
}